target datalayout = "e-m:e-p270:32:32-p271:32:32-p272:64:64-i64:64-i128:128-f80:128-n8:16:32:64-S128"
target triple = "x86_64-pc-linux-gnu"

@hf_gsm_a_rr_tch_acch = internal global i32 0, align 4
@hf_gsm_a_rr_sdcch4_sdcchc4_cbch = internal global i32 0, align 4
@hf_gsm_a_rr_sdcch8_sdcchc8_cbch = internal global i32 0, align 4
@hf_gsm_a_rr_unknown_channel_info = internal global i32 0, align 4
@hf_gsm_a_rr_subchannel = internal global i32 0, align 4
@hf_gsm_a_rr_timeslot = internal global i32 0, align 4
@hf_gsm_a_rr_training_sequence = internal global i32 0, align 4
@hf_gsm_a_rr_hopping_channel = internal global i32 0, align 4
@hf_gsm_a_rr_hopping_channel_maio = internal global i32 0, align 4
@hf_gsm_a_rr_hsn = internal global i32 0, align 4
@hf_gsm_a_rr_spare = internal global i32 0, align 4
@hf_gsm_a_rr_single_channel_arfcn = internal global i32 0, align 4
@hf_gsm_a_rr_tch_facch_sacchm = internal global i32 0, align 4
@hf_gsm_a_rr_tch_facch_sacchf = internal global i32 0, align 4
@hf_gsm_a_rr_tch_facch_sacchm_bi = internal global i32 0, align 4
@hf_gsm_a_rr_tch_facchf_sacchm_bi = internal global i32 0, align 4
@hf_gsm_a_rr_tch_facchf_sacchm_uni = internal global i32 0, align 4

; Function Attrs: null_pointer_is_valid sspstrong uwtable
define internal zeroext i16 @de_rr_ch_dsc2(ptr noundef %0, ptr noundef %1, ptr noundef %2, i32 noundef %3, i32 noundef %4, ptr noundef %5, i32 noundef %6) #1 {
  %8 = alloca ptr, align 8
  %9 = alloca ptr, align 8
  %10 = alloca ptr, align 8
  %11 = alloca i32, align 4
  %12 = alloca i32, align 4
  %13 = alloca ptr, align 8
  %14 = alloca i32, align 4
  %15 = alloca i32, align 4
  %16 = alloca i8, align 1
  %17 = alloca i8, align 1
  %18 = alloca i16, align 2
  %19 = alloca i16, align 2
  %20 = alloca i16, align 2
  %21 = alloca i32, align 4
  store ptr %0, ptr %8, align 8
  store ptr %1, ptr %9, align 8
  store ptr %2, ptr %10, align 8
  store i32 %3, ptr %11, align 4
  store i32 %4, ptr %12, align 4
  store ptr %5, ptr %13, align 8
  store i32 %6, ptr %14, align 4
  call void @llvm.lifetime.start.p0(i64 4, ptr %15) #11
  call void @llvm.lifetime.start.p0(i64 1, ptr %16) #11
  call void @llvm.lifetime.start.p0(i64 1, ptr %17) #11
  call void @llvm.lifetime.start.p0(i64 2, ptr %18) #11
  call void @llvm.lifetime.start.p0(i64 2, ptr %19) #11
  call void @llvm.lifetime.start.p0(i64 2, ptr %20) #11
  call void @llvm.lifetime.start.p0(i64 4, ptr %21) #11
  %22 = load i32, ptr %11, align 4
  store i32 %22, ptr %15, align 4
  %23 = load ptr, ptr %8, align 8
  %24 = load i32, ptr %15, align 4
  %25 = call zeroext i8 @tvb_get_uint8(ptr noundef %23, i32 noundef %24)
  store i8 %25, ptr %16, align 1
  %26 = load i8, ptr %16, align 1
  %27 = zext i8 %26 to i32
  %28 = and i32 %27, 248
  %29 = icmp eq i32 %28, 0
  br i1 %29, label %30, label %36

30:                                               ; preds = %7
  %31 = load ptr, ptr %9, align 8
  %32 = load i32, ptr @hf_gsm_a_rr_tch_facch_sacchm, align 4
  %33 = load ptr, ptr %8, align 8
  %34 = load i32, ptr %15, align 4
  %35 = call ptr @proto_tree_add_item(ptr noundef %31, i32 noundef %32, ptr noundef %33, i32 noundef %34, i32 noundef 1, i32 noundef 0)
  br label %140

36:                                               ; preds = %7
  %37 = load i8, ptr %16, align 1
  %38 = zext i8 %37 to i32
  %39 = and i32 %38, 248
  %40 = icmp eq i32 %39, 8
  br i1 %40, label %41, label %47

41:                                               ; preds = %36
  %42 = load ptr, ptr %9, align 8
  %43 = load i32, ptr @hf_gsm_a_rr_tch_facch_sacchf, align 4
  %44 = load ptr, ptr %8, align 8
  %45 = load i32, ptr %15, align 4
  %46 = call ptr @proto_tree_add_item(ptr noundef %42, i32 noundef %43, ptr noundef %44, i32 noundef %45, i32 noundef 1, i32 noundef 0)
  br label %139

47:                                               ; preds = %36
  %48 = load i8, ptr %16, align 1
  %49 = zext i8 %48 to i32
  %50 = and i32 %49, 248
  %51 = icmp eq i32 %50, 240
  br i1 %51, label %52, label %58

52:                                               ; preds = %47
  %53 = load ptr, ptr %9, align 8
  %54 = load i32, ptr @hf_gsm_a_rr_tch_facch_sacchm_bi, align 4
  %55 = load ptr, ptr %8, align 8
  %56 = load i32, ptr %15, align 4
  %57 = call ptr @proto_tree_add_item(ptr noundef %53, i32 noundef %54, ptr noundef %55, i32 noundef %56, i32 noundef 1, i32 noundef 0)
  br label %138

58:                                               ; preds = %47
  %59 = load i8, ptr %16, align 1
  %60 = zext i8 %59 to i32
  %61 = and i32 %60, 240
  %62 = icmp eq i32 %61, 16
  br i1 %62, label %63, label %70

63:                                               ; preds = %58
  %64 = load i32, ptr @hf_gsm_a_rr_tch_acch, align 4
  store i32 %64, ptr %21, align 4
  %65 = load i8, ptr %16, align 1
  %66 = zext i8 %65 to i32
  %67 = and i32 %66, 8
  %68 = ashr i32 %67, 3
  %69 = trunc i32 %68 to i8
  store i8 %69, ptr %17, align 1
  br label %125

70:                                               ; preds = %58
  %71 = load i8, ptr %16, align 1
  %72 = zext i8 %71 to i32
  %73 = and i32 %72, 224
  %74 = icmp eq i32 %73, 32
  br i1 %74, label %75, label %82

75:                                               ; preds = %70
  %76 = load i32, ptr @hf_gsm_a_rr_sdcch4_sdcchc4_cbch, align 4
  store i32 %76, ptr %21, align 4
  %77 = load i8, ptr %16, align 1
  %78 = zext i8 %77 to i32
  %79 = and i32 %78, 24
  %80 = ashr i32 %79, 3
  %81 = trunc i32 %80 to i8
  store i8 %81, ptr %17, align 1
  br label %124

82:                                               ; preds = %70
  %83 = load i8, ptr %16, align 1
  %84 = zext i8 %83 to i32
  %85 = and i32 %84, 192
  %86 = icmp eq i32 %85, 64
  br i1 %86, label %87, label %94

87:                                               ; preds = %82
  %88 = load i32, ptr @hf_gsm_a_rr_sdcch8_sdcchc8_cbch, align 4
  store i32 %88, ptr %21, align 4
  %89 = load i8, ptr %16, align 1
  %90 = zext i8 %89 to i32
  %91 = srem i32 %90, 56
  %92 = ashr i32 %91, 3
  %93 = trunc i32 %92 to i8
  store i8 %93, ptr %17, align 1
  br label %123

94:                                               ; preds = %82
  %95 = load i8, ptr %16, align 1
  %96 = zext i8 %95 to i32
  %97 = and i32 %96, 192
  %98 = icmp eq i32 %97, 128
  br i1 %98, label %99, label %106

99:                                               ; preds = %94
  %100 = load i32, ptr @hf_gsm_a_rr_tch_facchf_sacchm_bi, align 4
  store i32 %100, ptr %21, align 4
  %101 = load i8, ptr %16, align 1
  %102 = zext i8 %101 to i32
  %103 = srem i32 %102, 56
  %104 = ashr i32 %103, 3
  %105 = trunc i32 %104 to i8
  store i8 %105, ptr %17, align 1
  br label %122

106:                                              ; preds = %94
  %107 = load i8, ptr %16, align 1
  %108 = zext i8 %107 to i32
  %109 = and i32 %108, 224
  %110 = icmp eq i32 %109, 192
  br i1 %110, label %111, label %118

111:                                              ; preds = %106
  %112 = load i32, ptr @hf_gsm_a_rr_tch_facchf_sacchm_uni, align 4
  store i32 %112, ptr %21, align 4
  %113 = load i8, ptr %16, align 1
  %114 = zext i8 %113 to i32
  %115 = srem i32 %114, 56
  %116 = ashr i32 %115, 3
  %117 = trunc i32 %116 to i8
  store i8 %117, ptr %17, align 1
  br label %121

118:                                              ; preds = %106
  %119 = load i32, ptr @hf_gsm_a_rr_unknown_channel_info, align 4
  store i32 %119, ptr %21, align 4
  %120 = load i8, ptr %16, align 1
  store i8 %120, ptr %17, align 1
  br label %121

121:                                              ; preds = %118, %111
  br label %122

122:                                              ; preds = %121, %99
  br label %123

123:                                              ; preds = %122, %87
  br label %124

124:                                              ; preds = %123, %75
  br label %125

125:                                              ; preds = %124, %63
  %126 = load ptr, ptr %9, align 8
  %127 = load i32, ptr %21, align 4
  %128 = load ptr, ptr %8, align 8
  %129 = load i32, ptr %15, align 4
  %130 = call ptr @proto_tree_add_item(ptr noundef %126, i32 noundef %127, ptr noundef %128, i32 noundef %129, i32 noundef 1, i32 noundef 0)
  %131 = load ptr, ptr %9, align 8
  %132 = load i32, ptr @hf_gsm_a_rr_subchannel, align 4
  %133 = load ptr, ptr %8, align 8
  %134 = load i32, ptr %15, align 4
  %135 = load i8, ptr %17, align 1
  %136 = zext i8 %135 to i32
  %137 = call ptr @proto_tree_add_uint(ptr noundef %131, i32 noundef %132, ptr noundef %133, i32 noundef %134, i32 noundef 1, i32 noundef %136)
  br label %138

138:                                              ; preds = %125, %52
  br label %139

139:                                              ; preds = %138, %41
  br label %140

140:                                              ; preds = %139, %30
  %141 = load ptr, ptr %9, align 8
  %142 = load i32, ptr @hf_gsm_a_rr_timeslot, align 4
  %143 = load ptr, ptr %8, align 8
  %144 = load i32, ptr %15, align 4
  %145 = call ptr @proto_tree_add_item(ptr noundef %141, i32 noundef %142, ptr noundef %143, i32 noundef %144, i32 noundef 1, i32 noundef 0)
  %146 = load i32, ptr %15, align 4
  %147 = add i32 %146, 1
  store i32 %147, ptr %15, align 4
  %148 = load ptr, ptr %8, align 8
  %149 = load i32, ptr %15, align 4
  %150 = call zeroext i8 @tvb_get_uint8(ptr noundef %148, i32 noundef %149)
  store i8 %150, ptr %16, align 1
  %151 = load ptr, ptr %9, align 8
  %152 = load i32, ptr @hf_gsm_a_rr_training_sequence, align 4
  %153 = load ptr, ptr %8, align 8
  %154 = load i32, ptr %15, align 4
  %155 = call ptr @proto_tree_add_item(ptr noundef %151, i32 noundef %152, ptr noundef %153, i32 noundef %154, i32 noundef 1, i32 noundef 0)
  %156 = load ptr, ptr %9, align 8
  %157 = load i32, ptr @hf_gsm_a_rr_hopping_channel, align 4
  %158 = load ptr, ptr %8, align 8
  %159 = load i32, ptr %15, align 4
  %160 = call ptr @proto_tree_add_item(ptr noundef %156, i32 noundef %157, ptr noundef %158, i32 noundef %159, i32 noundef 1, i32 noundef 0)
  %161 = load i8, ptr %16, align 1
  %162 = zext i8 %161 to i32
  %163 = and i32 %162, 16
  %164 = icmp eq i32 %163, 16
  br i1 %164, label %165, label %200

165:                                              ; preds = %140
  %166 = load i8, ptr %16, align 1
  %167 = zext i8 %166 to i32
  %168 = and i32 %167, 15
  %169 = shl i32 %168, 2
  %170 = load ptr, ptr %8, align 8
  %171 = load i32, ptr %15, align 4
  %172 = add i32 %171, 1
  %173 = call zeroext i8 @tvb_get_uint8(ptr noundef %170, i32 noundef %172)
  %174 = zext i8 %173 to i32
  %175 = and i32 %174, 192
  %176 = ashr i32 %175, 6
  %177 = or i32 %169, %176
  %178 = trunc i32 %177 to i16
  store i16 %178, ptr %20, align 2
  %179 = load ptr, ptr %8, align 8
  %180 = load i32, ptr %15, align 4
  %181 = add i32 %180, 1
  %182 = call zeroext i8 @tvb_get_uint8(ptr noundef %179, i32 noundef %181)
  %183 = zext i8 %182 to i32
  %184 = and i32 %183, 63
  %185 = trunc i32 %184 to i16
  store i16 %185, ptr %19, align 2
  %186 = load ptr, ptr %9, align 8
  %187 = load i32, ptr @hf_gsm_a_rr_hopping_channel_maio, align 4
  %188 = load ptr, ptr %8, align 8
  %189 = load i32, ptr %15, align 4
  %190 = load i16, ptr %20, align 2
  %191 = zext i16 %190 to i32
  %192 = call ptr @proto_tree_add_uint(ptr noundef %186, i32 noundef %187, ptr noundef %188, i32 noundef %189, i32 noundef 2, i32 noundef %191)
  %193 = load ptr, ptr %9, align 8
  %194 = load i32, ptr @hf_gsm_a_rr_hsn, align 4
  %195 = load ptr, ptr %8, align 8
  %196 = load i32, ptr %15, align 4
  %197 = load i16, ptr %19, align 2
  %198 = zext i16 %197 to i32
  %199 = call ptr @proto_tree_add_uint(ptr noundef %193, i32 noundef %194, ptr noundef %195, i32 noundef %196, i32 noundef 2, i32 noundef %198)
  br label %226

200:                                              ; preds = %140
  %201 = load i8, ptr %16, align 1
  %202 = zext i8 %201 to i32
  %203 = and i32 %202, 3
  %204 = shl i32 %203, 8
  %205 = load ptr, ptr %8, align 8
  %206 = load i32, ptr %15, align 4
  %207 = add i32 %206, 1
  %208 = call zeroext i8 @tvb_get_uint8(ptr noundef %205, i32 noundef %207)
  %209 = zext i8 %208 to i32
  %210 = or i32 %204, %209
  %211 = trunc i32 %210 to i16
  store i16 %211, ptr %18, align 2
  %212 = load ptr, ptr %9, align 8
  %213 = load i32, ptr @hf_gsm_a_rr_spare, align 4
  %214 = load ptr, ptr %8, align 8
  %215 = load i32, ptr %15, align 4
  %216 = shl i32 %215, 3
  %217 = add i32 %216, 4
  %218 = call ptr @proto_tree_add_bits_item(ptr noundef %212, i32 noundef %213, ptr noundef %214, i32 noundef %217, i32 noundef 2, i32 noundef 0)
  %219 = load ptr, ptr %9, align 8
  %220 = load i32, ptr @hf_gsm_a_rr_single_channel_arfcn, align 4
  %221 = load ptr, ptr %8, align 8
  %222 = load i32, ptr %15, align 4
  %223 = load i16, ptr %18, align 2
  %224 = zext i16 %223 to i32
  %225 = call ptr @proto_tree_add_uint(ptr noundef %219, i32 noundef %220, ptr noundef %221, i32 noundef %222, i32 noundef 2, i32 noundef %224)
  br label %226

226:                                              ; preds = %200, %165
  %227 = load i32, ptr %15, align 4
  %228 = add i32 %227, 2
  store i32 %228, ptr %15, align 4
  %229 = load i32, ptr %15, align 4
  %230 = load i32, ptr %11, align 4
  %231 = sub i32 %229, %230
  %232 = trunc i32 %231 to i16
  call void @llvm.lifetime.end.p0(i64 4, ptr %21) #11
  call void @llvm.lifetime.end.p0(i64 2, ptr %20) #11
  call void @llvm.lifetime.end.p0(i64 2, ptr %19) #11
  call void @llvm.lifetime.end.p0(i64 2, ptr %18) #11
  call void @llvm.lifetime.end.p0(i64 1, ptr %17) #11
  call void @llvm.lifetime.end.p0(i64 1, ptr %16) #11
  call void @llvm.lifetime.end.p0(i64 4, ptr %15) #11
  ret i16 %232
}