; Function Attrs: null_pointer_is_valid sspstrong uwtable
define internal noundef zeroext i16 @de_rr_ch_dsc2(ptr noundef %0, ptr noundef %1, ptr readnone captures(none) %2, i32 noundef %3, i32 %4, ptr readnone captures(none) %5, i32 %6) #3 {
  %8 = tail call zeroext i8 @tvb_get_uint8(ptr noundef %0, i32 noundef %3)
  %9 = zext i8 %8 to i32
  %trunc = and i8 %8, -8
  switch i8 %trunc, label %19 [
    i8 0, label %10
    i8 8, label %13
    i8 -16, label %16
  ]

10:                                               ; preds = %7
  %11 = load i32, ptr @hf_gsm_a_rr_tch_facch_sacchm, align 4
  %12 = tail call ptr @proto_tree_add_item(ptr noundef %1, i32 noundef %11, ptr noundef %0, i32 noundef %3, i32 noundef 1, i32 noundef 0)
  br label %48

13:                                               ; preds = %7
  %14 = load i32, ptr @hf_gsm_a_rr_tch_facch_sacchf, align 4
  %15 = tail call ptr @proto_tree_add_item(ptr noundef %1, i32 noundef %14, ptr noundef %0, i32 noundef %3, i32 noundef 1, i32 noundef 0)
  br label %48

16:                                               ; preds = %7
  %17 = load i32, ptr @hf_gsm_a_rr_tch_facch_sacchm_bi, align 4
  %18 = tail call ptr @proto_tree_add_item(ptr noundef %1, i32 noundef %17, ptr noundef %0, i32 noundef %3, i32 noundef 1, i32 noundef 0)
  br label %48

19:                                               ; preds = %7
  %20 = and i32 %9, 240
  %21 = icmp eq i32 %20, 16
  br i1 %21, label %22, label %25

22:                                               ; preds = %19
  %23 = lshr i8 %8, 3
  %24 = and i8 %23, 1
  br label %43

25:                                               ; preds = %19
  %26 = and i32 %9, 224
  %27 = icmp eq i32 %26, 32
  br i1 %27, label %28, label %31

28:                                               ; preds = %25
  %29 = lshr i8 %8, 3
  %30 = and i8 %29, 3
  br label %43

31:                                               ; preds = %25
  %trunc76 = and i8 %8, -64
  switch i8 %trunc76, label %38 [
    i8 64, label %32
    i8 -128, label %35
  ]

32:                                               ; preds = %31
  %33 = urem i8 %8, 56
  %34 = lshr i8 %33, 3
  br label %43

35:                                               ; preds = %31
  %36 = urem i8 %8, 56
  %37 = lshr i8 %36, 3
  br label %43

38:                                               ; preds = %31
  %39 = icmp eq i32 %26, 192
  br i1 %39, label %40, label %43

40:                                               ; preds = %38
  %41 = urem i8 %8, 56
  %42 = lshr i8 %41, 3
  br label %43

43:                                               ; preds = %38, %28, %35, %40, %32, %22
  %.072 = phi i8 [ %24, %22 ], [ %30, %28 ], [ %34, %32 ], [ %37, %35 ], [ %42, %40 ], [ %8, %38 ]
  %.0.in = phi ptr [ @hf_gsm_a_rr_tch_acch, %22 ], [ @hf_gsm_a_rr_sdcch4_sdcchc4_cbch, %28 ], [ @hf_gsm_a_rr_sdcch8_sdcchc8_cbch, %32 ], [ @hf_gsm_a_rr_tch_facchf_sacchm_bi, %35 ], [ @hf_gsm_a_rr_tch_facchf_sacchm_uni, %40 ], [ @hf_gsm_a_rr_unknown_channel_info, %38 ]
  %.0 = load i32, ptr %.0.in, align 4
  %44 = tail call ptr @proto_tree_add_item(ptr noundef %1, i32 noundef %.0, ptr noundef %0, i32 noundef %3, i32 noundef 1, i32 noundef 0)
  %45 = load i32, ptr @hf_gsm_a_rr_subchannel, align 4
  %46 = zext i8 %.072 to i32
  %47 = tail call ptr @proto_tree_add_uint(ptr noundef %1, i32 noundef %45, ptr noundef %0, i32 noundef %3, i32 noundef 1, i32 noundef %46)
  br label %48

48:                                               ; preds = %13, %43, %16, %10
  %49 = load i32, ptr @hf_gsm_a_rr_timeslot, align 4
  %50 = tail call ptr @proto_tree_add_item(ptr noundef %1, i32 noundef %49, ptr noundef %0, i32 noundef %3, i32 noundef 1, i32 noundef 0)
  %51 = add i32 %3, 1
  %52 = tail call zeroext i8 @tvb_get_uint8(ptr noundef %0, i32 noundef %51)
  %53 = load i32, ptr @hf_gsm_a_rr_training_sequence, align 4
  %54 = tail call ptr @proto_tree_add_item(ptr noundef %1, i32 noundef %53, ptr noundef %0, i32 noundef %51, i32 noundef 1, i32 noundef 0)
  %55 = load i32, ptr @hf_gsm_a_rr_hopping_channel, align 4
  %56 = tail call ptr @proto_tree_add_item(ptr noundef %1, i32 noundef %55, ptr noundef %0, i32 noundef %51, i32 noundef 1, i32 noundef 0)
  %57 = zext i8 %52 to i32
  %58 = and i32 %57, 16
  %.not = icmp eq i32 %58, 0
  %59 = add i32 %3, 2
  %60 = tail call zeroext i8 @tvb_get_uint8(ptr noundef %0, i32 noundef %59)
  br i1 %.not, label %74, label %61

61:                                               ; preds = %48
  %62 = shl nuw nsw i32 %57, 2
  %63 = and i32 %62, 60
  %64 = lshr i8 %60, 6
  %65 = zext nneg i8 %64 to i32
  %66 = or disjoint i32 %63, %65
  %67 = tail call zeroext i8 @tvb_get_uint8(ptr noundef %0, i32 noundef %59)
  %68 = and i8 %67, 63
  %69 = load i32, ptr @hf_gsm_a_rr_hopping_channel_maio, align 4
  %70 = tail call ptr @proto_tree_add_uint(ptr noundef %1, i32 noundef %69, ptr noundef %0, i32 noundef %51, i32 noundef 2, i32 noundef %66)
  %71 = load i32, ptr @hf_gsm_a_rr_hsn, align 4
  %72 = zext nneg i8 %68 to i32
  %73 = tail call ptr @proto_tree_add_uint(ptr noundef %1, i32 noundef %71, ptr noundef %0, i32 noundef %51, i32 noundef 2, i32 noundef %72)
  br label %85

74:                                               ; preds = %48
  %75 = shl nuw nsw i32 %57, 8
  %76 = and i32 %75, 768
  %77 = zext i8 %60 to i32
  %78 = or disjoint i32 %76, %77
  %79 = load i32, ptr @hf_gsm_a_rr_spare, align 4
  %80 = shl i32 %51, 3
  %81 = or disjoint i32 %80, 4
  %82 = tail call ptr @proto_tree_add_bits_item(ptr noundef %1, i32 noundef %79, ptr noundef %0, i32 noundef %81, i32 noundef 2, i32 noundef 0)
  %83 = load i32, ptr @hf_gsm_a_rr_single_channel_arfcn, align 4
  %84 = tail call ptr @proto_tree_add_uint(ptr noundef %1, i32 noundef %83, ptr noundef %0, i32 noundef %51, i32 noundef 2, i32 noundef %78)
  br label %85

85:                                               ; preds = %74, %61
  ret i16 3
}